target datalayout = "e-m:e-p270:32:32-p271:32:32-p272:64:64-i64:64-i128:128-f80:128-n8:16:32:64-S128"
target triple = "x86_64-pc-linux-gnu"

%struct.FLAC__OggDecoderAspect = type { i32, i64, %struct.ogg_stream_state, %struct.ogg_sync_state, i32, i32, i32, i32, i32, i32, i32, i32, i32, %struct.ogg_page, i32, %struct.ogg_packet, ptr, %struct.FLAC__OggDecoderAspect_TargetLink, i32, i32, i32, i32, i32, i32 }
%struct.ogg_stream_state = type { ptr, i64, i64, i64, ptr, ptr, i64, i64, i64, i64, [282 x i8], i32, i32, i32, i64, i64, i64, i64 }
%struct.ogg_sync_state = type { ptr, i32, i32, i32, i32, i32, i32 }
%struct.ogg_page = type { ptr, i64, ptr, i64 }
%struct.ogg_packet = type { ptr, i64, i64, i64, i64, i64 }
%struct.FLAC__OggDecoderAspect_TargetLink = type { i64, i64, i64, i64, i64, i32 }

; Function Attrs: nounwind sspstrong uwtable
define hidden void @FLAC__ogg_decoder_aspect_set_seek_parameters(ptr noundef %0, ptr noundef %1) #0 {
  %3 = alloca ptr, align 8
  %4 = alloca ptr, align 8
  store ptr %0, ptr %3, align 8, !tbaa !3
  store ptr %1, ptr %4, align 8, !tbaa !55
  %5 = load ptr, ptr %4, align 8, !tbaa !55
  %6 = icmp eq ptr %5, null
  br i1 %6, label %7, label %10

7:                                                ; preds = %2
  %8 = load ptr, ptr %3, align 8, !tbaa !3
  %9 = getelementptr inbounds nuw %struct.FLAC__OggDecoderAspect, ptr %8, i32 0, i32 23
  store i32 0, ptr %9, align 4, !tbaa !57
  br label %37

10:                                               ; preds = %2
  %11 = load ptr, ptr %3, align 8, !tbaa !3
  %12 = getelementptr inbounds nuw %struct.FLAC__OggDecoderAspect, ptr %11, i32 0, i32 6
  store i32 0, ptr %12, align 8, !tbaa !25
  %13 = load ptr, ptr %4, align 8, !tbaa !55
  %14 = getelementptr inbounds nuw %struct.FLAC__OggDecoderAspect_TargetLink, ptr %13, i32 0, i32 5
  %15 = load i32, ptr %14, align 8, !tbaa !58
  %16 = load ptr, ptr %3, align 8, !tbaa !3
  %17 = getelementptr inbounds nuw %struct.FLAC__OggDecoderAspect, ptr %16, i32 0, i32 21
  store i32 %15, ptr %17, align 4, !tbaa !29
  %18 = load ptr, ptr %4, align 8, !tbaa !55
  %19 = getelementptr inbounds nuw %struct.FLAC__OggDecoderAspect_TargetLink, ptr %18, i32 0, i32 5
  %20 = load i32, ptr %19, align 8, !tbaa !58
  %21 = load ptr, ptr %3, align 8, !tbaa !3
  %22 = getelementptr inbounds nuw %struct.FLAC__OggDecoderAspect, ptr %21, i32 0, i32 22
  store i32 %20, ptr %22, align 8, !tbaa !30
  %23 = load ptr, ptr %4, align 8, !tbaa !55
  %24 = getelementptr inbounds nuw %struct.FLAC__OggDecoderAspect_TargetLink, ptr %23, i32 0, i32 0
  %25 = load i64, ptr %24, align 8, !tbaa !59
  %26 = load ptr, ptr %3, align 8, !tbaa !3
  %27 = getelementptr inbounds nuw %struct.FLAC__OggDecoderAspect, ptr %26, i32 0, i32 1
  store i64 %25, ptr %27, align 8, !tbaa !8
  %28 = load ptr, ptr %3, align 8, !tbaa !3
  %29 = getelementptr inbounds nuw %struct.FLAC__OggDecoderAspect, ptr %28, i32 0, i32 2
  %30 = load ptr, ptr %3, align 8, !tbaa !3
  %31 = getelementptr inbounds nuw %struct.FLAC__OggDecoderAspect, ptr %30, i32 0, i32 1
  %32 = load i64, ptr %31, align 8, !tbaa !8
  %33 = trunc i64 %32 to i32
  %34 = call i32 @ogg_stream_reset_serialno(ptr noundef %29, i32 noundef %33)
  %35 = load ptr, ptr %3, align 8, !tbaa !3
  %36 = getelementptr inbounds nuw %struct.FLAC__OggDecoderAspect, ptr %35, i32 0, i32 23
  store i32 1, ptr %36, align 4, !tbaa !57
  br label %37

37:                                               ; preds = %10, %7
  ret void
}