; Function Attrs: nounwind sspstrong uwtable
define hidden void @FLAC__ogg_decoder_aspect_set_seek_parameters(ptr noundef %0, ptr noundef readonly %1) local_unnamed_addr #2 {
  %3 = icmp eq ptr %1, null
  br i1 %3, label %15, label %4

4:                                                ; preds = %2
  %5 = getelementptr inbounds nuw i8, ptr %0, i64 464
  store i32 0, ptr %5, align 8, !tbaa !23
  %6 = getelementptr inbounds nuw i8, ptr %1, i64 40
  %7 = load i32, ptr %6, align 8, !tbaa !49
  %8 = getelementptr inbounds nuw i8, ptr %0, i64 652
  store i32 %7, ptr %8, align 4, !tbaa !33
  %9 = getelementptr inbounds nuw i8, ptr %0, i64 656
  store i32 %7, ptr %9, align 8, !tbaa !34
  %10 = load i64, ptr %1, align 8, !tbaa !50
  %11 = getelementptr inbounds nuw i8, ptr %0, i64 8
  store i64 %10, ptr %11, align 8, !tbaa !3
  %12 = getelementptr inbounds nuw i8, ptr %0, i64 16
  %13 = trunc i64 %10 to i32
  %14 = tail call i32 @ogg_stream_reset_serialno(ptr noundef nonnull %12, i32 noundef %13) #15
  br label %15

15:                                               ; preds = %2, %4
  %.sink = phi i32 [ 1, %4 ], [ 0, %2 ]
  %16 = getelementptr inbounds nuw i8, ptr %0, i64 660
  store i32 %.sink, ptr %16, align 4, !tbaa !51
  ret void
}